target datalayout = "e-m:e-p270:32:32-p271:32:32-p272:64:64-i64:64-i128:128-f80:128-n8:16:32:64-S128"
target triple = "x86_64-pc-linux-gnu"

%struct.timespec = type { i64, i64 }

; Function Attrs: mustprogress nounwind uwtable
define dso_local noundef double @_ZN4VlOs13DeltaWallTime7gettimeEv() #4 align 2 {
  %1 = alloca double, align 8
  %2 = alloca %struct.timespec, align 8
  %3 = alloca i32, align 4
  call void @llvm.lifetime.start.p0(i64 16, ptr %2) #3
  %4 = call i32 @clock_gettime(i32 noundef 1, ptr noundef %2) #3
  %5 = icmp eq i32 0, %4
  br i1 %5, label %6, label %14

6:                                                ; preds = %0
  %7 = getelementptr inbounds nuw %struct.timespec, ptr %2, i32 0, i32 0
  %8 = load i64, ptr %7, align 8, !tbaa !4
  %9 = sitofp i64 %8 to double
  %10 = getelementptr inbounds nuw %struct.timespec, ptr %2, i32 0, i32 1
  %11 = load i64, ptr %10, align 8, !tbaa !9
  %12 = sitofp i64 %11 to double
  %13 = call double @llvm.fmuladd.f64(double %12, double 1.000000e-09, double %9)
  store double %13, ptr %1, align 8
  store i32 1, ptr %3, align 4
  br label %15

14:                                               ; preds = %0
  store double 0.000000e+00, ptr %1, align 8
  store i32 1, ptr %3, align 4
  br label %15

15:                                               ; preds = %14, %6
  call void @llvm.lifetime.end.p0(i64 16, ptr %2) #3
  %16 = load double, ptr %1, align 8
  ret double %16
}