; Function Attrs: mustprogress nounwind uwtable
define dso_local noundef double @_ZN4VlOs13DeltaWallTime7gettimeEv() #3 align 2 {
  %1 = alloca %struct.timespec, align 8
  call void @llvm.lifetime.start.p0(i64 16, ptr nonnull %1) #28
  %2 = call i32 @clock_gettime(i32 noundef 1, ptr noundef nonnull %1) #28
  %3 = icmp eq i32 %2, 0
  br i1 %3, label %4, label %11

4:                                                ; preds = %0
  %5 = load i64, ptr %1, align 8, !tbaa !4
  %6 = sitofp i64 %5 to double
  %7 = getelementptr inbounds nuw i8, ptr %1, i64 8
  %8 = load i64, ptr %7, align 8, !tbaa !9
  %9 = sitofp i64 %8 to double
  %10 = call double @llvm.fmuladd.f64(double %9, double 1.000000e-09, double %6)
  br label %11

11:                                               ; preds = %0, %4
  %.0 = phi double [ %10, %4 ], [ 0.000000e+00, %0 ]
  call void @llvm.lifetime.end.p0(i64 16, ptr nonnull %1) #28
  ret double %.0
}